target datalayout = "e-m:e-p270:32:32-p271:32:32-p272:64:64-i64:64-i128:128-f80:128-n8:16:32:64-S128"
target triple = "x86_64-pc-linux-gnu"

%struct.TupleDescData = type { i32, i32, i32, i32, ptr, [0 x %struct.CompactAttribute] }
%struct.CompactAttribute = type { i32, i16, i8, i8, i8, i8, i8, i8, i8 }
%struct.Session = type { ptr, ptr, ptr, ptr, ptr }
%struct.SharedTypmodTableEntry = type { i32, i64 }
%struct.SharedRecordTableKey = type { %union.anon, i8 }
%union.anon = type { ptr }
%struct.__jmp_buf_tag = type { [8 x i64], i32, %struct.__sigset_t }
%struct.__sigset_t = type { [16 x i64] }
%struct.SharedRecordTableEntry = type { %struct.SharedRecordTableKey }
%struct.SharedRecordTypmodRegistry = type { i64, i64, %struct.pg_atomic_uint32 }
%struct.pg_atomic_uint32 = type { i32 }

@.str.3 = private unnamed_addr constant [11 x i8] c"typcache.c\00", align 1
@.str.8 = private unnamed_addr constant [45 x i8] c"cannot create duplicate shared record typmod\00", align 1
@CurrentSession = external global ptr, align 8
@PG_exception_stack = external global ptr, align 8
@error_context_stack = external global ptr, align 8
@__func__.find_or_make_matching_shared_tupledesc = private unnamed_addr constant [39 x i8] c"find_or_make_matching_shared_tupledesc\00", align 1

; Function Attrs: inlinehint nounwind uwtable
define internal i32 @pg_atomic_fetch_add_u32_impl(ptr noundef %0, i32 noundef %1) #3 {
  %3 = alloca ptr, align 8
  %4 = alloca i32, align 4
  %5 = alloca i32, align 4
  store ptr %0, ptr %3, align 8
  store i32 %1, ptr %4, align 4
  call void @llvm.lifetime.start.p0(i64 4, ptr %5) #11
  %6 = load ptr, ptr %3, align 8
  %7 = getelementptr inbounds nuw %struct.pg_atomic_uint32, ptr %6, i32 0, i32 0
  %8 = load i32, ptr %4, align 4
  %9 = load ptr, ptr %3, align 8
  %10 = getelementptr inbounds nuw %struct.pg_atomic_uint32, ptr %9, i32 0, i32 0
  %11 = call i32 asm sideeffect "\09lock\09\09\09\09\0A\09xaddl\09$0,$1\09\09\0A", "=q,=*m,0,*m,~{memory},~{cc},~{dirflag},~{fpsr},~{flags}"(ptr elementtype(i32) %7, i32 %8, ptr elementtype(i32) %10) #11, !srcloc !23
  store i32 %11, ptr %5, align 4
  %12 = load i32, ptr %5, align 4
  call void @llvm.lifetime.end.p0(i64 4, ptr %5) #11
  ret i32 %12
}

; Function Attrs: nounwind uwtable
define internal i64 @share_tupledesc(ptr noundef %0, ptr noundef %1, i32 noundef %2) #0 {
  %4 = alloca ptr, align 8
  %5 = alloca ptr, align 8
  %6 = alloca i32, align 4
  %7 = alloca i64, align 8
  %8 = alloca ptr, align 8
  store ptr %0, ptr %4, align 8
  store ptr %1, ptr %5, align 8
  store i32 %2, ptr %6, align 4
  call void @llvm.lifetime.start.p0(i64 8, ptr %7) #11
  call void @llvm.lifetime.start.p0(i64 8, ptr %8) #11
  %9 = load ptr, ptr %4, align 8
  %10 = load ptr, ptr %5, align 8
  %11 = getelementptr inbounds nuw %struct.TupleDescData, ptr %10, i32 0, i32 0
  %12 = load i32, ptr %11, align 8
  %13 = sext i32 %12 to i64
  %14 = mul i64 %13, 16
  %15 = add i64 24, %14
  %16 = load ptr, ptr %5, align 8
  %17 = getelementptr inbounds nuw %struct.TupleDescData, ptr %16, i32 0, i32 0
  %18 = load i32, ptr %17, align 8
  %19 = sext i32 %18 to i64
  %20 = mul i64 %19, 100
  %21 = add i64 %15, %20
  %22 = call i64 @dsa_allocate_extended(ptr noundef %9, i64 noundef %21, i32 noundef 0)
  store i64 %22, ptr %7, align 8
  %23 = load ptr, ptr %4, align 8
  %24 = load i64, ptr %7, align 8
  %25 = call ptr @dsa_get_address(ptr noundef %23, i64 noundef %24)
  store ptr %25, ptr %8, align 8
  %26 = load ptr, ptr %8, align 8
  %27 = load ptr, ptr %5, align 8
  call void @TupleDescCopy(ptr noundef %26, ptr noundef %27)
  %28 = load i32, ptr %6, align 4
  %29 = load ptr, ptr %8, align 8
  %30 = getelementptr inbounds nuw %struct.TupleDescData, ptr %29, i32 0, i32 2
  store i32 %28, ptr %30, align 8
  %31 = load i64, ptr %7, align 8
  call void @llvm.lifetime.end.p0(i64 8, ptr %8) #11
  call void @llvm.lifetime.end.p0(i64 8, ptr %7) #11
  ret i64 %31
}

; Function Attrs: inlinehint nounwind uwtable
define internal i32 @pg_atomic_fetch_add_u32(ptr noundef %0, i32 noundef %1) #3 {
  %3 = alloca ptr, align 8
  %4 = alloca i32, align 4
  store ptr %0, ptr %3, align 8
  store i32 %1, ptr %4, align 4
  %5 = load ptr, ptr %3, align 8
  %6 = load i32, ptr %4, align 4
  %7 = call i32 @pg_atomic_fetch_add_u32_impl(ptr noundef %5, i32 noundef %6)
  ret i32 %7
}

; Function Attrs: nounwind uwtable
define internal ptr @find_or_make_matching_shared_tupledesc(ptr noundef %0) #0 {
  %2 = alloca ptr, align 8
  %3 = alloca ptr, align 8
  %4 = alloca ptr, align 8
  %5 = alloca %struct.SharedRecordTableKey, align 8
  %6 = alloca ptr, align 8
  %7 = alloca ptr, align 8
  %8 = alloca i64, align 8
  %9 = alloca i8, align 1
  %10 = alloca i32, align 4
  %11 = alloca i32, align 4
  %12 = alloca ptr, align 8
  %13 = alloca ptr, align 8
  %14 = alloca [1 x %struct.__jmp_buf_tag], align 16
  %15 = alloca i8, align 1
  store ptr %0, ptr %3, align 8
  call void @llvm.lifetime.start.p0(i64 8, ptr %4) #11
  call void @llvm.lifetime.start.p0(i64 16, ptr %5) #11
  call void @llvm.lifetime.start.p0(i64 8, ptr %6) #11
  call void @llvm.lifetime.start.p0(i64 8, ptr %7) #11
  call void @llvm.lifetime.start.p0(i64 8, ptr %8) #11
  call void @llvm.lifetime.start.p0(i64 1, ptr %9) #11
  call void @llvm.lifetime.start.p0(i64 4, ptr %10) #11
  %16 = load ptr, ptr @CurrentSession, align 8
  %17 = getelementptr inbounds nuw %struct.Session, ptr %16, i32 0, i32 2
  %18 = load ptr, ptr %17, align 8
  %19 = icmp eq ptr %18, null
  br i1 %19, label %20, label %21

20:                                               ; preds = %1
  store ptr null, ptr %2, align 8
  store i32 1, ptr %11, align 4
  br label %155

21:                                               ; preds = %1
  %22 = getelementptr inbounds nuw %struct.SharedRecordTableKey, ptr %5, i32 0, i32 1
  store i8 0, ptr %22, align 8
  %23 = load ptr, ptr %3, align 8
  %24 = getelementptr inbounds nuw %struct.SharedRecordTableKey, ptr %5, i32 0, i32 0
  store ptr %23, ptr %24, align 8
  %25 = load ptr, ptr @CurrentSession, align 8
  %26 = getelementptr inbounds nuw %struct.Session, ptr %25, i32 0, i32 3
  %27 = load ptr, ptr %26, align 8
  %28 = call ptr @dshash_find(ptr noundef %27, ptr noundef %5, i1 noundef zeroext false)
  store ptr %28, ptr %6, align 8
  %29 = load ptr, ptr %6, align 8
  %30 = icmp ne ptr %29, null
  br i1 %30, label %31, label %45

31:                                               ; preds = %21
  %32 = load ptr, ptr @CurrentSession, align 8
  %33 = getelementptr inbounds nuw %struct.Session, ptr %32, i32 0, i32 3
  %34 = load ptr, ptr %33, align 8
  %35 = load ptr, ptr %6, align 8
  call void @dshash_release_lock(ptr noundef %34, ptr noundef %35)
  %36 = load ptr, ptr @CurrentSession, align 8
  %37 = getelementptr inbounds nuw %struct.Session, ptr %36, i32 0, i32 1
  %38 = load ptr, ptr %37, align 8
  %39 = load ptr, ptr %6, align 8
  %40 = getelementptr inbounds nuw %struct.SharedRecordTableEntry, ptr %39, i32 0, i32 0
  %41 = getelementptr inbounds nuw %struct.SharedRecordTableKey, ptr %40, i32 0, i32 0
  %42 = load i64, ptr %41, align 8
  %43 = call ptr @dsa_get_address(ptr noundef %38, i64 noundef %42)
  store ptr %43, ptr %4, align 8
  %44 = load ptr, ptr %4, align 8
  store ptr %44, ptr %2, align 8
  store i32 1, ptr %11, align 4
  br label %155

45:                                               ; preds = %21
  %46 = load ptr, ptr @CurrentSession, align 8
  %47 = getelementptr inbounds nuw %struct.Session, ptr %46, i32 0, i32 2
  %48 = load ptr, ptr %47, align 8
  %49 = getelementptr inbounds nuw %struct.SharedRecordTypmodRegistry, ptr %48, i32 0, i32 2
  %50 = call i32 @pg_atomic_fetch_add_u32(ptr noundef %49, i32 noundef 1)
  store i32 %50, ptr %10, align 4
  %51 = load ptr, ptr @CurrentSession, align 8
  %52 = getelementptr inbounds nuw %struct.Session, ptr %51, i32 0, i32 1
  %53 = load ptr, ptr %52, align 8
  %54 = load ptr, ptr %3, align 8
  %55 = load i32, ptr %10, align 4
  %56 = call i64 @share_tupledesc(ptr noundef %53, ptr noundef %54, i32 noundef %55)
  store i64 %56, ptr %8, align 8
  br label %57

57:                                               ; preds = %45
  call void @llvm.lifetime.start.p0(i64 8, ptr %12) #11
  %58 = load ptr, ptr @PG_exception_stack, align 8
  store ptr %58, ptr %12, align 8
  call void @llvm.lifetime.start.p0(i64 8, ptr %13) #11
  %59 = load ptr, ptr @error_context_stack, align 8
  store ptr %59, ptr %13, align 8
  call void @llvm.lifetime.start.p0(i64 200, ptr %14) #11
  call void @llvm.lifetime.start.p0(i64 1, ptr %15) #11
  store i8 0, ptr %15, align 1
  %60 = getelementptr inbounds [1 x %struct.__jmp_buf_tag], ptr %14, i64 0, i64 0
  %61 = call i32 @__sigsetjmp(ptr noundef %60, i32 noundef 0) #13
  %62 = icmp eq i32 %61, 0
  br i1 %62, label %63, label %82

63:                                               ; preds = %57
  store ptr %14, ptr @PG_exception_stack, align 8
  %64 = load ptr, ptr @CurrentSession, align 8
  %65 = getelementptr inbounds nuw %struct.Session, ptr %64, i32 0, i32 4
  %66 = load ptr, ptr %65, align 8
  %67 = call ptr @dshash_find_or_insert(ptr noundef %66, ptr noundef %10, ptr noundef %9)
  store ptr %67, ptr %7, align 8
  %68 = load i8, ptr %9, align 1, !range !4, !noundef !5
  %69 = trunc i8 %68 to i1
  br i1 %69, label %70, label %81

70:                                               ; preds = %63
  br label %71

71:                                               ; preds = %70
  br i1 true, label %72, label %74

72:                                               ; preds = %71
  %73 = call zeroext i1 @errstart_cold(i32 noundef 21, ptr noundef null) #12
  br i1 %73, label %76, label %78

74:                                               ; preds = %71
  %75 = call zeroext i1 @errstart(i32 noundef 21, ptr noundef null)
  br i1 %75, label %76, label %78

76:                                               ; preds = %74, %72
  %77 = call i32 (ptr, ...) @errmsg_internal(ptr noundef @.str.8)
  call void @errfinish(ptr noundef @.str.3, i32 noundef 2979, ptr noundef @__func__.find_or_make_matching_shared_tupledesc)
  br label %78

78:                                               ; preds = %76, %74, %72
  unreachable

79:                                               ; No predecessors!
  br label %80

80:                                               ; preds = %79
  br label %81

81:                                               ; preds = %80, %63
  br label %89

82:                                               ; preds = %57
  %83 = load ptr, ptr %12, align 8
  store ptr %83, ptr @PG_exception_stack, align 8
  %84 = load ptr, ptr %13, align 8
  store ptr %84, ptr @error_context_stack, align 8
  %85 = load ptr, ptr @CurrentSession, align 8
  %86 = getelementptr inbounds nuw %struct.Session, ptr %85, i32 0, i32 1
  %87 = load ptr, ptr %86, align 8
  %88 = load i64, ptr %8, align 8
  call void @dsa_free(ptr noundef %87, i64 noundef %88)
  call void @pg_re_throw() #14
  unreachable

89:                                               ; preds = %81
  %90 = load i8, ptr %15, align 1, !range !4, !noundef !5
  %91 = trunc i8 %90 to i1
  br i1 %91, label %92, label %93

92:                                               ; preds = %89
  call void @pg_re_throw() #14
  unreachable

93:                                               ; preds = %89
  %94 = load ptr, ptr %12, align 8
  store ptr %94, ptr @PG_exception_stack, align 8
  %95 = load ptr, ptr %13, align 8
  store ptr %95, ptr @error_context_stack, align 8
  call void @llvm.lifetime.end.p0(i64 1, ptr %15) #11
  call void @llvm.lifetime.end.p0(i64 200, ptr %14) #11
  call void @llvm.lifetime.end.p0(i64 8, ptr %13) #11
  call void @llvm.lifetime.end.p0(i64 8, ptr %12) #11
  br label %96

96:                                               ; preds = %93
  br label %97

97:                                               ; preds = %96
  %98 = load i32, ptr %10, align 4
  %99 = load ptr, ptr %7, align 8
  %100 = getelementptr inbounds nuw %struct.SharedTypmodTableEntry, ptr %99, i32 0, i32 0
  store i32 %98, ptr %100, align 8
  %101 = load i64, ptr %8, align 8
  %102 = load ptr, ptr %7, align 8
  %103 = getelementptr inbounds nuw %struct.SharedTypmodTableEntry, ptr %102, i32 0, i32 1
  store i64 %101, ptr %103, align 8
  %104 = load ptr, ptr @CurrentSession, align 8
  %105 = getelementptr inbounds nuw %struct.Session, ptr %104, i32 0, i32 4
  %106 = load ptr, ptr %105, align 8
  %107 = load ptr, ptr %7, align 8
  call void @dshash_release_lock(ptr noundef %106, ptr noundef %107)
  %108 = load ptr, ptr @CurrentSession, align 8
  %109 = getelementptr inbounds nuw %struct.Session, ptr %108, i32 0, i32 3
  %110 = load ptr, ptr %109, align 8
  %111 = call ptr @dshash_find_or_insert(ptr noundef %110, ptr noundef %5, ptr noundef %9)
  store ptr %111, ptr %6, align 8
  %112 = load i8, ptr %9, align 1, !range !4, !noundef !5
  %113 = trunc i8 %112 to i1
  br i1 %113, label %114, label %137

114:                                              ; preds = %97
  %115 = load ptr, ptr @CurrentSession, align 8
  %116 = getelementptr inbounds nuw %struct.Session, ptr %115, i32 0, i32 3
  %117 = load ptr, ptr %116, align 8
  %118 = load ptr, ptr %6, align 8
  call void @dshash_release_lock(ptr noundef %117, ptr noundef %118)
  %119 = load ptr, ptr @CurrentSession, align 8
  %120 = getelementptr inbounds nuw %struct.Session, ptr %119, i32 0, i32 4
  %121 = load ptr, ptr %120, align 8
  %122 = call zeroext i1 @dshash_delete_key(ptr noundef %121, ptr noundef %10)
  %123 = zext i1 %122 to i8
  store i8 %123, ptr %9, align 1
  %124 = load ptr, ptr @CurrentSession, align 8
  %125 = getelementptr inbounds nuw %struct.Session, ptr %124, i32 0, i32 1
  %126 = load ptr, ptr %125, align 8
  %127 = load i64, ptr %8, align 8
  call void @dsa_free(ptr noundef %126, i64 noundef %127)
  %128 = load ptr, ptr @CurrentSession, align 8
  %129 = getelementptr inbounds nuw %struct.Session, ptr %128, i32 0, i32 1
  %130 = load ptr, ptr %129, align 8
  %131 = load ptr, ptr %6, align 8
  %132 = getelementptr inbounds nuw %struct.SharedRecordTableEntry, ptr %131, i32 0, i32 0
  %133 = getelementptr inbounds nuw %struct.SharedRecordTableKey, ptr %132, i32 0, i32 0
  %134 = load i64, ptr %133, align 8
  %135 = call ptr @dsa_get_address(ptr noundef %130, i64 noundef %134)
  store ptr %135, ptr %4, align 8
  %136 = load ptr, ptr %4, align 8
  store ptr %136, ptr %2, align 8
  store i32 1, ptr %11, align 4
  br label %155

137:                                              ; preds = %97
  %138 = load ptr, ptr %6, align 8
  %139 = getelementptr inbounds nuw %struct.SharedRecordTableEntry, ptr %138, i32 0, i32 0
  %140 = getelementptr inbounds nuw %struct.SharedRecordTableKey, ptr %139, i32 0, i32 1
  store i8 1, ptr %140, align 8
  %141 = load i64, ptr %8, align 8
  %142 = load ptr, ptr %6, align 8
  %143 = getelementptr inbounds nuw %struct.SharedRecordTableEntry, ptr %142, i32 0, i32 0
  %144 = getelementptr inbounds nuw %struct.SharedRecordTableKey, ptr %143, i32 0, i32 0
  store i64 %141, ptr %144, align 8
  %145 = load ptr, ptr @CurrentSession, align 8
  %146 = getelementptr inbounds nuw %struct.Session, ptr %145, i32 0, i32 3
  %147 = load ptr, ptr %146, align 8
  %148 = load ptr, ptr %6, align 8
  call void @dshash_release_lock(ptr noundef %147, ptr noundef %148)
  %149 = load ptr, ptr @CurrentSession, align 8
  %150 = getelementptr inbounds nuw %struct.Session, ptr %149, i32 0, i32 1
  %151 = load ptr, ptr %150, align 8
  %152 = load i64, ptr %8, align 8
  %153 = call ptr @dsa_get_address(ptr noundef %151, i64 noundef %152)
  store ptr %153, ptr %4, align 8
  %154 = load ptr, ptr %4, align 8
  store ptr %154, ptr %2, align 8
  store i32 1, ptr %11, align 4
  br label %155

155:                                              ; preds = %137, %114, %31, %20
  call void @llvm.lifetime.end.p0(i64 4, ptr %10) #11
  call void @llvm.lifetime.end.p0(i64 1, ptr %9) #11
  call void @llvm.lifetime.end.p0(i64 8, ptr %8) #11
  call void @llvm.lifetime.end.p0(i64 8, ptr %7) #11
  call void @llvm.lifetime.end.p0(i64 8, ptr %6) #11
  call void @llvm.lifetime.end.p0(i64 16, ptr %5) #11
  call void @llvm.lifetime.end.p0(i64 8, ptr %4) #11
  %156 = load ptr, ptr %2, align 8
  ret ptr %156
}