; Function Attrs: nounwind uwtable
define internal fastcc ptr @find_or_make_matching_shared_tupledesc(ptr noundef %0) unnamed_addr #0 {
  %2 = alloca %struct.SharedRecordTableKey, align 8
  %3 = alloca i8, align 1
  %4 = alloca i32, align 4
  %5 = alloca [1 x %struct.__jmp_buf_tag], align 16
  call void @llvm.lifetime.start.p0(i64 16, ptr nonnull %2) #16
  call void @llvm.lifetime.start.p0(i64 1, ptr nonnull %3) #16
  call void @llvm.lifetime.start.p0(i64 4, ptr nonnull %4) #16
  %6 = load ptr, ptr @CurrentSession, align 8
  %7 = getelementptr inbounds nuw i8, ptr %6, i64 16
  %8 = load ptr, ptr %7, align 8
  %9 = icmp eq ptr %8, null
  br i1 %9, label %94, label %10

10:                                               ; preds = %1
  %11 = getelementptr inbounds nuw i8, ptr %2, i64 8
  store i8 0, ptr %11, align 8
  store ptr %0, ptr %2, align 8
  %12 = getelementptr inbounds nuw i8, ptr %6, i64 24
  %13 = load ptr, ptr %12, align 8
  %14 = call ptr @dshash_find(ptr noundef %13, ptr noundef nonnull %2, i1 noundef zeroext false) #16
  %.not = icmp eq ptr %14, null
  %15 = load ptr, ptr @CurrentSession, align 8
  br i1 %.not, label %24, label %16

16:                                               ; preds = %10
  %17 = getelementptr inbounds nuw i8, ptr %15, i64 24
  %18 = load ptr, ptr %17, align 8
  call void @dshash_release_lock(ptr noundef %18, ptr noundef nonnull %14) #16
  %19 = load ptr, ptr @CurrentSession, align 8
  %20 = getelementptr inbounds nuw i8, ptr %19, i64 8
  %21 = load ptr, ptr %20, align 8
  %22 = load i64, ptr %14, align 8
  %23 = call ptr @dsa_get_address(ptr noundef %21, i64 noundef %22) #16
  br label %94

24:                                               ; preds = %10
  %25 = getelementptr inbounds nuw i8, ptr %15, i64 16
  %26 = load ptr, ptr %25, align 8
  %27 = getelementptr inbounds nuw i8, ptr %26, i64 16
  %28 = call i32 asm sideeffect "\09lock\09\09\09\09\0A\09xaddl\09$0,$1\09\09\0A", "=q,=*m,0,*m,~{memory},~{cc},~{dirflag},~{fpsr},~{flags}"(ptr nonnull elementtype(i32) %27, i32 1, ptr nonnull elementtype(i32) %27) #16, !srcloc !14
  store i32 %28, ptr %4, align 4
  %29 = load ptr, ptr @CurrentSession, align 8
  %30 = getelementptr inbounds nuw i8, ptr %29, i64 8
  %31 = load ptr, ptr %30, align 8
  %32 = load i32, ptr %0, align 8
  %33 = sext i32 %32 to i64
  %reass.mul.i = mul nsw i64 %33, 116
  %34 = add nsw i64 %reass.mul.i, 24
  %35 = call i64 @dsa_allocate_extended(ptr noundef %31, i64 noundef %34, i32 noundef 0) #16
  %36 = call ptr @dsa_get_address(ptr noundef %31, i64 noundef %35) #16
  call void @TupleDescCopy(ptr noundef %36, ptr noundef nonnull %0) #16
  %37 = getelementptr inbounds nuw i8, ptr %36, i64 8
  store i32 %28, ptr %37, align 8
  %38 = load ptr, ptr @PG_exception_stack, align 8
  %39 = load ptr, ptr @error_context_stack, align 8
  call void @llvm.lifetime.start.p0(i64 200, ptr nonnull %5) #16
  %40 = call i32 @__sigsetjmp(ptr noundef nonnull %5, i32 noundef 0) #18
  %41 = icmp eq i32 %40, 0
  br i1 %41, label %42, label %52

42:                                               ; preds = %24
  store ptr %5, ptr @PG_exception_stack, align 8
  %43 = load ptr, ptr @CurrentSession, align 8
  %44 = getelementptr inbounds nuw i8, ptr %43, i64 32
  %45 = load ptr, ptr %44, align 8
  %46 = call ptr @dshash_find_or_insert(ptr noundef %45, ptr noundef nonnull %4, ptr noundef nonnull %3) #16
  %47 = load i8, ptr %3, align 1, !range !4, !noundef !5
  %48 = trunc nuw i8 %47 to i1
  br i1 %48, label %49, label %56

49:                                               ; preds = %42
  %50 = call zeroext i1 @errstart_cold(i32 noundef 21, ptr noundef null) #17
  call void @llvm.assume(i1 %50)
  %51 = call i32 (ptr, ...) @errmsg_internal(ptr noundef nonnull @.str.8) #16
  call void @errfinish(ptr noundef nonnull @.str.3, i32 noundef 2979, ptr noundef nonnull @__func__.find_or_make_matching_shared_tupledesc) #16
  unreachable

52:                                               ; preds = %24
  store ptr %38, ptr @PG_exception_stack, align 8
  store ptr %39, ptr @error_context_stack, align 8
  %53 = load ptr, ptr @CurrentSession, align 8
  %54 = getelementptr inbounds nuw i8, ptr %53, i64 8
  %55 = load ptr, ptr %54, align 8
  call void @dsa_free(ptr noundef %55, i64 noundef %35) #16
  call void @pg_re_throw() #19
  unreachable

56:                                               ; preds = %42
  store ptr %38, ptr @PG_exception_stack, align 8
  store ptr %39, ptr @error_context_stack, align 8
  call void @llvm.lifetime.end.p0(i64 200, ptr nonnull %5) #16
  %57 = load i32, ptr %4, align 4
  store i32 %57, ptr %46, align 8
  %58 = getelementptr inbounds nuw i8, ptr %46, i64 8
  store i64 %35, ptr %58, align 8
  %59 = load ptr, ptr @CurrentSession, align 8
  %60 = getelementptr inbounds nuw i8, ptr %59, i64 32
  %61 = load ptr, ptr %60, align 8
  call void @dshash_release_lock(ptr noundef %61, ptr noundef nonnull %46) #16
  %62 = load ptr, ptr @CurrentSession, align 8
  %63 = getelementptr inbounds nuw i8, ptr %62, i64 24
  %64 = load ptr, ptr %63, align 8
  %65 = call ptr @dshash_find_or_insert(ptr noundef %64, ptr noundef nonnull %2, ptr noundef nonnull %3) #16
  %66 = load i8, ptr %3, align 1, !range !4, !noundef !5
  %67 = trunc nuw i8 %66 to i1
  br i1 %67, label %68, label %85

68:                                               ; preds = %56
  %69 = load ptr, ptr @CurrentSession, align 8
  %70 = getelementptr inbounds nuw i8, ptr %69, i64 24
  %71 = load ptr, ptr %70, align 8
  call void @dshash_release_lock(ptr noundef %71, ptr noundef %65) #16
  %72 = load ptr, ptr @CurrentSession, align 8
  %73 = getelementptr inbounds nuw i8, ptr %72, i64 32
  %74 = load ptr, ptr %73, align 8
  %75 = call zeroext i1 @dshash_delete_key(ptr noundef %74, ptr noundef nonnull %4) #16
  %76 = zext i1 %75 to i8
  store i8 %76, ptr %3, align 1
  %77 = load ptr, ptr @CurrentSession, align 8
  %78 = getelementptr inbounds nuw i8, ptr %77, i64 8
  %79 = load ptr, ptr %78, align 8
  call void @dsa_free(ptr noundef %79, i64 noundef %35) #16
  %80 = load ptr, ptr @CurrentSession, align 8
  %81 = getelementptr inbounds nuw i8, ptr %80, i64 8
  %82 = load ptr, ptr %81, align 8
  %83 = load i64, ptr %65, align 8
  %84 = call ptr @dsa_get_address(ptr noundef %82, i64 noundef %83) #16
  br label %94

85:                                               ; preds = %56
  %86 = getelementptr inbounds nuw i8, ptr %65, i64 8
  store i8 1, ptr %86, align 8
  store i64 %35, ptr %65, align 8
  %87 = load ptr, ptr @CurrentSession, align 8
  %88 = getelementptr inbounds nuw i8, ptr %87, i64 24
  %89 = load ptr, ptr %88, align 8
  call void @dshash_release_lock(ptr noundef %89, ptr noundef nonnull %65) #16
  %90 = load ptr, ptr @CurrentSession, align 8
  %91 = getelementptr inbounds nuw i8, ptr %90, i64 8
  %92 = load ptr, ptr %91, align 8
  %93 = call ptr @dsa_get_address(ptr noundef %92, i64 noundef %35) #16
  br label %94

94:                                               ; preds = %1, %85, %68, %16
  %.0 = phi ptr [ %23, %16 ], [ %84, %68 ], [ %93, %85 ], [ null, %1 ]
  call void @llvm.lifetime.end.p0(i64 4, ptr nonnull %4) #16
  call void @llvm.lifetime.end.p0(i64 1, ptr nonnull %3) #16
  call void @llvm.lifetime.end.p0(i64 16, ptr nonnull %2) #16
  ret ptr %.0
}